; ModuleID = 'source-C-CXX/61/103.cpp'
source_filename = "source-C-CXX/61/103.cpp"
target datalayout = "e-m:e-p270:32:32-p271:32:32-p272:64:64-i64:64-f80:128-n8:16:32:64-S128"
target triple = "x86_64-pc-linux-gnu"

%"class.std::ios_base::Init" = type { i8 }
%"class.std::basic_istream" = type { i32 (...)**, i64, %"class.std::basic_ios" }
%"class.std::basic_ios" = type { %"class.std::ios_base", %"class.std::basic_ostream"*, i8, i8, %"class.std::basic_streambuf"*, %"class.std::ctype"*, %"class.std::num_put"*, %"class.std::num_get"* }
%"class.std::ios_base" = type { i32 (...)**, i64, i64, i32, i32, i32, %"struct.std::ios_base::_Callback_list"*, %"struct.std::ios_base::_Words", [8 x %"struct.std::ios_base::_Words"], i32, %"struct.std::ios_base::_Words"*, %"class.std::locale" }
%"struct.std::ios_base::_Callback_list" = type { %"struct.std::ios_base::_Callback_list"*, void (i32, %"class.std::ios_base"*, i32)*, i32, i32 }
%"struct.std::ios_base::_Words" = type { i8*, i64 }
%"class.std::locale" = type { %"class.std::locale::_Impl"* }
%"class.std::locale::_Impl" = type { i32, %"class.std::locale::facet"**, i64, %"class.std::locale::facet"**, i8** }
%"class.std::locale::facet" = type <{ i32 (...)**, i32, [4 x i8] }>
%"class.std::basic_ostream" = type { i32 (...)**, %"class.std::basic_ios" }
%"class.std::basic_streambuf" = type { i32 (...)**, i8*, i8*, i8*, i8*, i8*, i8*, %"class.std::locale" }
%"class.std::ctype" = type <{ %"class.std::locale::facet.base", [4 x i8], %struct.__locale_struct*, i8, [7 x i8], i32*, i32*, i16*, i8, [256 x i8], [256 x i8], i8, [6 x i8] }>
%"class.std::locale::facet.base" = type <{ i32 (...)**, i32 }>
%struct.__locale_struct = type { [13 x %struct.__locale_data*], i16*, i32*, i32*, [13 x i8*] }
%struct.__locale_data = type opaque
%"class.std::num_put" = type { %"class.std::locale::facet.base", [4 x i8] }
%"class.std::num_get" = type { %"class.std::locale::facet.base", [4 x i8] }

@_ZStL8__ioinit = internal global %"class.std::ios_base::Init" zeroinitializer, align 1
@__dso_handle = external hidden global i8
@_ZSt3cin = external global %"class.std::basic_istream", align 8
@_ZSt4cout = external global %"class.std::basic_ostream", align 8
@llvm.global_ctors = appending global [1 x { i32, void ()*, i8* }] [{ i32, void ()*, i8* } { i32 65535, void ()* @_GLOBAL__sub_I_103.cpp, i8* null }]

declare void @_ZNSt8ios_base4InitC1Ev(%"class.std::ios_base::Init"* nonnull align 1 dereferenceable(1)) unnamed_addr #0

; Function Attrs: nounwind
declare void @_ZNSt8ios_base4InitD1Ev(%"class.std::ios_base::Init"* nonnull align 1 dereferenceable(1)) unnamed_addr #1

; Function Attrs: nofree nounwind
declare i32 @__cxa_atexit(void (i8*)*, i8*, i8*) local_unnamed_addr #2

; Function Attrs: mustprogress norecurse sspstrong uwtable
define dso_local i32 @main() local_unnamed_addr #3 {
  %1 = alloca i8, align 1
  %2 = alloca [101 x i32], align 16
  %3 = alloca [101 x i8], align 16
  %4 = bitcast [101 x i32]* %2 to i8*
  call void @llvm.lifetime.start.p0i8(i64 404, i8* nonnull %4) #9
  call void @llvm.memset.p0i8.i64(i8* noundef nonnull align 16 dereferenceable(404) %4, i8 0, i64 404, i1 false)
  %5 = getelementptr inbounds [101 x i8], [101 x i8]* %3, i64 0, i64 0
  call void @llvm.lifetime.start.p0i8(i64 101, i8* nonnull %5) #9
  %6 = load i8*, i8** bitcast (%"class.std::basic_istream"* @_ZSt3cin to i8**), align 8, !tbaa !5
  %7 = getelementptr i8, i8* %6, i64 -24
  %8 = bitcast i8* %7 to i64*
  %9 = load i64, i64* %8, align 8
  %10 = add nsw i64 %9, 240
  %11 = getelementptr inbounds i8, i8* bitcast (%"class.std::basic_istream"* @_ZSt3cin to i8*), i64 %10
  %12 = bitcast i8* %11 to %"class.std::ctype"**
  %13 = load %"class.std::ctype"*, %"class.std::ctype"** %12, align 8, !tbaa !8
  %14 = icmp eq %"class.std::ctype"* %13, null
  br i1 %14, label %15, label %16

15:                                               ; preds = %0
  tail call void @_ZSt16__throw_bad_castv() #10
  unreachable

16:                                               ; preds = %0
  %17 = getelementptr inbounds %"class.std::ctype", %"class.std::ctype"* %13, i64 0, i32 8
  %18 = load i8, i8* %17, align 8, !tbaa !13
  %19 = icmp eq i8 %18, 0
  br i1 %19, label %23, label %20

20:                                               ; preds = %16
  %21 = getelementptr inbounds %"class.std::ctype", %"class.std::ctype"* %13, i64 0, i32 9, i64 10
  %22 = load i8, i8* %21, align 1, !tbaa !15
  br label %29

23:                                               ; preds = %16
  tail call void @_ZNKSt5ctypeIcE13_M_widen_initEv(%"class.std::ctype"* nonnull align 8 dereferenceable(570) %13)
  %24 = bitcast %"class.std::ctype"* %13 to i8 (%"class.std::ctype"*, i8)***
  %25 = load i8 (%"class.std::ctype"*, i8)**, i8 (%"class.std::ctype"*, i8)*** %24, align 8, !tbaa !5
  %26 = getelementptr inbounds i8 (%"class.std::ctype"*, i8)*, i8 (%"class.std::ctype"*, i8)** %25, i64 6
  %27 = load i8 (%"class.std::ctype"*, i8)*, i8 (%"class.std::ctype"*, i8)** %26, align 8
  %28 = tail call signext i8 %27(%"class.std::ctype"* nonnull align 8 dereferenceable(570) %13, i8 signext 10)
  br label %29

29:                                               ; preds = %20, %23
  %30 = phi i8 [ %22, %20 ], [ %28, %23 ]
  %31 = call nonnull align 8 dereferenceable(16) %"class.std::basic_istream"* @_ZNSi7getlineEPclc(%"class.std::basic_istream"* nonnull align 8 dereferenceable(16) @_ZSt3cin, i8* nonnull %5, i64 101, i8 signext %30)
  %32 = call i64 @strlen(i8* noundef nonnull %5) #11
  %33 = getelementptr inbounds [101 x i32], [101 x i32]* %2, i64 0, i64 0
  %34 = shl i64 %32, 32
  %35 = ashr exact i64 %34, 32
  %36 = getelementptr inbounds [101 x i8], [101 x i8]* %3, i64 0, i64 %35
  %37 = icmp sgt i64 %34, 0
  br i1 %37, label %39, label %65

38:                                               ; preds = %49
  br i1 %37, label %53, label %65

39:                                               ; preds = %29, %49
  %40 = phi i32* [ %51, %49 ], [ %33, %29 ]
  %41 = phi i8* [ %50, %49 ], [ %5, %29 ]
  %42 = load i8, i8* %41, align 1, !tbaa !15
  %43 = icmp eq i8 %42, 32
  br i1 %43, label %44, label %49

44:                                               ; preds = %39
  %45 = getelementptr inbounds i8, i8* %41, i64 1
  %46 = load i8, i8* %45, align 1, !tbaa !15
  %47 = icmp eq i8 %46, 32
  br i1 %47, label %48, label %49

48:                                               ; preds = %44
  store i32 1, i32* %40, align 4, !tbaa !16
  br label %49

49:                                               ; preds = %39, %44, %48
  %50 = getelementptr inbounds i8, i8* %41, i64 1
  %51 = getelementptr inbounds i32, i32* %40, i64 1
  %52 = icmp ult i8* %50, %36
  br i1 %52, label %39, label %38, !llvm.loop !18

53:                                               ; preds = %38, %61
  %54 = phi i32* [ %63, %61 ], [ %33, %38 ]
  %55 = phi i8* [ %62, %61 ], [ %5, %38 ]
  %56 = load i32, i32* %54, align 4, !tbaa !16
  %57 = icmp eq i32 %56, 1
  br i1 %57, label %61, label %58

58:                                               ; preds = %53
  %59 = load i8, i8* %55, align 1, !tbaa !15
  call void @llvm.lifetime.start.p0i8(i64 1, i8* nonnull %1)
  store i8 %59, i8* %1, align 1, !tbaa !15
  %60 = call nonnull align 8 dereferenceable(8) %"class.std::basic_ostream"* @_ZSt16__ostream_insertIcSt11char_traitsIcEERSt13basic_ostreamIT_T0_ES6_PKS3_l(%"class.std::basic_ostream"* nonnull align 8 dereferenceable(8) @_ZSt4cout, i8* nonnull %1, i64 1)
  call void @llvm.lifetime.end.p0i8(i64 1, i8* nonnull %1)
  br label %61

61:                                               ; preds = %53, %58
  %62 = getelementptr inbounds i8, i8* %55, i64 1
  %63 = getelementptr inbounds i32, i32* %54, i64 1
  %64 = icmp ult i8* %62, %36
  br i1 %64, label %53, label %65, !llvm.loop !20

65:                                               ; preds = %61, %29, %38
  call void @llvm.lifetime.end.p0i8(i64 101, i8* nonnull %5) #9
  call void @llvm.lifetime.end.p0i8(i64 404, i8* nonnull %4) #9
  ret i32 0
}

; Function Attrs: argmemonly mustprogress nofree nosync nounwind willreturn
declare void @llvm.lifetime.start.p0i8(i64 immarg, i8* nocapture) #4

; Function Attrs: argmemonly mustprogress nofree nounwind willreturn writeonly
declare void @llvm.memset.p0i8.i64(i8* nocapture writeonly, i8, i64, i1 immarg) #5

; Function Attrs: argmemonly mustprogress nofree nounwind readonly willreturn
declare i64 @strlen(i8* nocapture) local_unnamed_addr #6

; Function Attrs: argmemonly mustprogress nofree nosync nounwind willreturn
declare void @llvm.lifetime.end.p0i8(i64 immarg, i8* nocapture) #4

declare nonnull align 8 dereferenceable(16) %"class.std::basic_istream"* @_ZNSi7getlineEPclc(%"class.std::basic_istream"* nonnull align 8 dereferenceable(16), i8*, i64, i8 signext) local_unnamed_addr #0

; Function Attrs: noreturn
declare void @_ZSt16__throw_bad_castv() local_unnamed_addr #7

declare void @_ZNKSt5ctypeIcE13_M_widen_initEv(%"class.std::ctype"* nonnull align 8 dereferenceable(570)) local_unnamed_addr #0

declare nonnull align 8 dereferenceable(8) %"class.std::basic_ostream"* @_ZSt16__ostream_insertIcSt11char_traitsIcEERSt13basic_ostreamIT_T0_ES6_PKS3_l(%"class.std::basic_ostream"* nonnull align 8 dereferenceable(8), i8*, i64) local_unnamed_addr #0

; Function Attrs: sspstrong uwtable
define internal void @_GLOBAL__sub_I_103.cpp() #8 section ".text.startup" {
  tail call void @_ZNSt8ios_base4InitC1Ev(%"class.std::ios_base::Init"* nonnull align 1 dereferenceable(1) @_ZStL8__ioinit)
  %1 = tail call i32 @__cxa_atexit(void (i8*)* bitcast (void (%"class.std::ios_base::Init"*)* @_ZNSt8ios_base4InitD1Ev to void (i8*)*), i8* getelementptr inbounds (%"class.std::ios_base::Init", %"class.std::ios_base::Init"* @_ZStL8__ioinit, i64 0, i32 0), i8* nonnull @__dso_handle) #9
  ret void
}


!llvm.module.flags = !{!0, !1, !2, !3}
!llvm.ident = !{!4}

!0 = !{i32 1, !"wchar_size", i32 4}
!1 = !{i32 7, !"PIC Level", i32 2}
!2 = !{i32 7, !"PIE Level", i32 2}
!3 = !{i32 7, !"uwtable", i32 1}
!4 = !{!"clang version 13.0.0"}
!5 = !{!6, !6, i64 0}
!6 = !{!"vtable pointer", !7, i64 0}
!7 = !{!"Simple C++ TBAA"}
!8 = !{!9, !10, i64 240}
!9 = !{!"_ZTSSt9basic_iosIcSt11char_traitsIcEE", !10, i64 216, !11, i64 224, !12, i64 225, !10, i64 232, !10, i64 240, !10, i64 248, !10, i64 256}
!10 = !{!"any pointer", !11, i64 0}
!11 = !{!"omnipotent char", !7, i64 0}
!12 = !{!"bool", !11, i64 0}
!13 = !{!14, !11, i64 56}
!14 = !{!"_ZTSSt5ctypeIcE", !10, i64 16, !12, i64 24, !10, i64 32, !10, i64 40, !10, i64 48, !11, i64 56, !11, i64 57, !11, i64 313, !11, i64 569}
!15 = !{!11, !11, i64 0}
!16 = !{!17, !17, i64 0}
!17 = !{!"int", !11, i64 0}
!18 = distinct !{!18, !19}
!19 = !{!"llvm.loop.mustprogress"}
!20 = distinct !{!20, !19}
